target datalayout = "e-m:e-p270:32:32-p271:32:32-p272:64:64-i64:64-i128:128-f80:128-n8:16:32:64-S128"
target triple = "x86_64-pc-linux-gnu"

; Function Attrs: inlinehint nounwind uwtable
define internal i32 @isNotVarNameSymbol(i8 noundef signext %0) #3 {
  %2 = alloca i8, align 1
  store i8 %0, ptr %2, align 1, !tbaa !55
  %3 = load i8, ptr %2, align 1, !tbaa !55
  %4 = sext i8 %3 to i32
  %5 = icmp eq i32 %4, 32
  br i1 %5, label %22, label %6

6:                                                ; preds = %1
  %7 = load i8, ptr %2, align 1, !tbaa !55
  %8 = sext i8 %7 to i32
  %9 = icmp eq i32 %8, 9
  br i1 %9, label %22, label %10

10:                                               ; preds = %6
  %11 = load i8, ptr %2, align 1, !tbaa !55
  %12 = sext i8 %11 to i32
  %13 = icmp eq i32 %12, 10
  br i1 %13, label %22, label %14

14:                                               ; preds = %10
  %15 = load i8, ptr %2, align 1, !tbaa !55
  %16 = sext i8 %15 to i32
  %17 = icmp eq i32 %16, 58
  br i1 %17, label %22, label %18

18:                                               ; preds = %14
  %19 = load i8, ptr %2, align 1, !tbaa !55
  %20 = sext i8 %19 to i32
  %21 = icmp eq i32 %20, 0
  br label %22

22:                                               ; preds = %18, %14, %10, %6, %1
  %23 = phi i1 [ true, %14 ], [ true, %10 ], [ true, %6 ], [ true, %1 ], [ %21, %18 ]
  %24 = zext i1 %23 to i32
  ret i32 %24
}

; Function Attrs: nounwind uwtable
define ptr @getVarName(ptr noundef %0, i32 noundef %1, ptr noundef %2) #0 {
  %4 = alloca ptr, align 8
  %5 = alloca ptr, align 8
  %6 = alloca i32, align 4
  %7 = alloca ptr, align 8
  %8 = alloca i32, align 4
  %9 = alloca i32, align 4
  %10 = alloca ptr, align 8
  %11 = alloca i32, align 4
  store ptr %0, ptr %5, align 8, !tbaa !45
  store i32 %1, ptr %6, align 4, !tbaa !3
  store ptr %2, ptr %7, align 8, !tbaa !54
  call void @llvm.lifetime.start.p0(i64 4, ptr %8) #9
  %12 = load i32, ptr %6, align 4, !tbaa !3
  store i32 %12, ptr %8, align 4, !tbaa !3
  call void @llvm.lifetime.start.p0(i64 4, ptr %9) #9
  call void @llvm.lifetime.start.p0(i64 8, ptr %10) #9
  %13 = load ptr, ptr %5, align 8, !tbaa !45
  %14 = load i32, ptr %6, align 4, !tbaa !3
  %15 = sext i32 %14 to i64
  %16 = getelementptr inbounds i8, ptr %13, i64 %15
  %17 = load i8, ptr %16, align 1, !tbaa !55
  %18 = call i32 @isNotVarNameSymbol(i8 noundef signext %17)
  %19 = icmp ne i32 %18, 0
  br i1 %19, label %20, label %21

20:                                               ; preds = %3
  store ptr null, ptr %4, align 8
  store i32 1, ptr %11, align 4
  br label %70

21:                                               ; preds = %3
  br label %22

22:                                               ; preds = %31, %21
  %23 = load ptr, ptr %5, align 8, !tbaa !45
  %24 = load i32, ptr %8, align 4, !tbaa !3
  %25 = sext i32 %24 to i64
  %26 = getelementptr inbounds i8, ptr %23, i64 %25
  %27 = load i8, ptr %26, align 1, !tbaa !55
  %28 = call i32 @isNotVarNameSymbol(i8 noundef signext %27)
  %29 = icmp ne i32 %28, 0
  %30 = xor i1 %29, true
  br i1 %30, label %31, label %34

31:                                               ; preds = %22
  %32 = load i32, ptr %8, align 4, !tbaa !3
  %33 = add nsw i32 %32, 1
  store i32 %33, ptr %8, align 4, !tbaa !3
  br label %22, !llvm.loop !56

34:                                               ; preds = %22
  %35 = load i32, ptr %8, align 4, !tbaa !3
  %36 = load ptr, ptr %7, align 8, !tbaa !54
  store i32 %35, ptr %36, align 4, !tbaa !3
  %37 = load i32, ptr %8, align 4, !tbaa !3
  %38 = load i32, ptr %6, align 4, !tbaa !3
  %39 = sub nsw i32 %37, %38
  store i32 %39, ptr %9, align 4, !tbaa !3
  %40 = load i32, ptr %9, align 4, !tbaa !3
  %41 = add nsw i32 %40, 1
  %42 = sext i32 %41 to i64
  %43 = mul i64 1, %42
  %44 = call noalias ptr @malloc(i64 noundef %43) #10
  store ptr %44, ptr %10, align 8, !tbaa !45
  store i32 0, ptr %8, align 4, !tbaa !3
  br label %45

45:                                               ; preds = %61, %34
  %46 = load i32, ptr %8, align 4, !tbaa !3
  %47 = load i32, ptr %9, align 4, !tbaa !3
  %48 = icmp slt i32 %46, %47
  br i1 %48, label %49, label %64

49:                                               ; preds = %45
  %50 = load ptr, ptr %5, align 8, !tbaa !45
  %51 = load i32, ptr %8, align 4, !tbaa !3
  %52 = load i32, ptr %6, align 4, !tbaa !3
  %53 = add nsw i32 %51, %52
  %54 = sext i32 %53 to i64
  %55 = getelementptr inbounds i8, ptr %50, i64 %54
  %56 = load i8, ptr %55, align 1, !tbaa !55
  %57 = load ptr, ptr %10, align 8, !tbaa !45
  %58 = load i32, ptr %8, align 4, !tbaa !3
  %59 = sext i32 %58 to i64
  %60 = getelementptr inbounds i8, ptr %57, i64 %59
  store i8 %56, ptr %60, align 1, !tbaa !55
  br label %61

61:                                               ; preds = %49
  %62 = load i32, ptr %8, align 4, !tbaa !3
  %63 = add nsw i32 %62, 1
  store i32 %63, ptr %8, align 4, !tbaa !3
  br label %45, !llvm.loop !57

64:                                               ; preds = %45
  %65 = load ptr, ptr %10, align 8, !tbaa !45
  %66 = load i32, ptr %8, align 4, !tbaa !3
  %67 = sext i32 %66 to i64
  %68 = getelementptr inbounds i8, ptr %65, i64 %67
  store i8 0, ptr %68, align 1, !tbaa !55
  %69 = load ptr, ptr %10, align 8, !tbaa !45
  store ptr %69, ptr %4, align 8
  store i32 1, ptr %11, align 4
  br label %70

70:                                               ; preds = %64, %20
  call void @llvm.lifetime.end.p0(i64 8, ptr %10) #9
  call void @llvm.lifetime.end.p0(i64 4, ptr %9) #9
  call void @llvm.lifetime.end.p0(i64 4, ptr %8) #9
  %71 = load ptr, ptr %4, align 8
  ret ptr %71
}