; Function Attrs: nofree nounwind uwtable
define noalias noundef ptr @getVarName(ptr noundef readonly captures(none) %0, i32 noundef %1, ptr noundef writeonly captures(none) %2) local_unnamed_addr #5 {
  %4 = sext i32 %1 to i64
  %5 = getelementptr i8, ptr %0, i64 %4
  %6 = load i8, ptr %5, align 1, !tbaa !43
  switch i8 %6, label %.preheader [
    i8 58, label %isNotVarNameSymbol.exit.thread
    i8 32, label %isNotVarNameSymbol.exit.thread
    i8 10, label %isNotVarNameSymbol.exit.thread
    i8 9, label %isNotVarNameSymbol.exit.thread
    i8 0, label %isNotVarNameSymbol.exit.thread
  ]

.preheader:                                       ; preds = %3, %8
  %7 = phi i8 [ %.pre, %8 ], [ %6, %3 ]
  %indvars.iv32 = phi i32 [ %indvars.iv.next33, %8 ], [ -1, %3 ]
  %indvar = phi i64 [ %indvar.next, %8 ], [ 0, %3 ]
  %indvars.iv = phi i64 [ %indvars.iv.next, %8 ], [ %4, %3 ]
  switch i8 %7, label %8 [
    i8 58, label %isNotVarNameSymbol.exit24.thread
    i8 32, label %isNotVarNameSymbol.exit24.thread
    i8 10, label %isNotVarNameSymbol.exit24.thread
    i8 9, label %isNotVarNameSymbol.exit24.thread
    i8 0, label %isNotVarNameSymbol.exit24.thread
  ]

8:                                                ; preds = %.preheader
  %indvars.iv.next = add nsw i64 %indvars.iv, 1
  %indvar.next = add i64 %indvar, 1
  %indvars.iv.next33 = add i32 %indvars.iv32, 1
  %.phi.trans.insert = getelementptr inbounds i8, ptr %0, i64 %indvars.iv.next
  %.pre = load i8, ptr %.phi.trans.insert, align 1, !tbaa !43
  br label %.preheader, !llvm.loop !44

isNotVarNameSymbol.exit24.thread:                 ; preds = %.preheader, %.preheader, %.preheader, %.preheader, %.preheader
  %9 = trunc nsw i64 %indvars.iv to i32
  store i32 %9, ptr %2, align 4, !tbaa !45
  %10 = sub nsw i32 %9, %1
  %11 = add nsw i32 %10, 1
  %12 = sext i32 %11 to i64
  %13 = tail call noalias ptr @malloc(i64 noundef %12) #22
  %14 = icmp sgt i32 %10, 0
  br i1 %14, label %.lr.ph.preheader, label %._crit_edge

.lr.ph.preheader:                                 ; preds = %isNotVarNameSymbol.exit24.thread
  tail call void @llvm.memcpy.p0.p0.i64(ptr align 1 %13, ptr nonnull align 1 %5, i64 %indvar, i1 false), !tbaa !43
  %15 = add i32 %indvars.iv32, 1
  %16 = zext nneg i32 %15 to i64
  br label %._crit_edge

._crit_edge:                                      ; preds = %.lr.ph.preheader, %isNotVarNameSymbol.exit24.thread
  %.1.lcssa = phi i64 [ 0, %isNotVarNameSymbol.exit24.thread ], [ %16, %.lr.ph.preheader ]
  %17 = getelementptr inbounds nuw i8, ptr %13, i64 %.1.lcssa
  store i8 0, ptr %17, align 1, !tbaa !43
  br label %isNotVarNameSymbol.exit.thread

isNotVarNameSymbol.exit.thread:                   ; preds = %3, %3, %3, %3, %3, %._crit_edge
  %.0 = phi ptr [ %13, %._crit_edge ], [ null, %3 ], [ null, %3 ], [ null, %3 ], [ null, %3 ], [ null, %3 ]
  ret ptr %.0
}